target datalayout = "e-m:e-p270:32:32-p271:32:32-p272:64:64-i64:64-i128:128-f80:128-n8:16:32:64-S128"
target triple = "x86_64-pc-linux-gnu"

%struct.Map_NodeStruct_t_ = type { ptr, ptr, i32, i32, i32, i32, [3 x i32], [3 x float], float, ptr, ptr, ptr, ptr, [2 x %struct.Map_TimeStruct_t_], [2 x %struct.Map_TimeStruct_t_], [2 x ptr], ptr, ptr, ptr }
%struct.Map_TimeStruct_t_ = type { float, float, float }
%struct.Map_ManStruct_t_ = type { ptr, i32, ptr, i32, ptr, i32, i32, ptr, ptr, ptr, ptr, ptr, ptr, ptr, ptr, i32, i32, i32, i32, float, float, float, float, i32, i32, float, i32, i32, i32, i32, ptr, [6 x [2 x i32]], [10 x [32 x i32]], [32 x i32], [32 x i32], ptr, ptr, ptr, ptr, ptr, ptr, i32, i32, i32, i32, i32, i32, i64, i64, i64, i64, i64, i64, i64, i64, i64, i64, i64 }
%struct.Map_NodeVecStruct_t_ = type { ptr, i32, i32 }
%struct.Map_CutStruct_t_ = type { ptr, ptr, ptr, [6 x ptr], i32, i8, i8, i8, i8, [2 x %struct.Map_MatchStruct_t_] }
%struct.Map_MatchStruct_t_ = type { ptr, i32, i32, ptr, %struct.Map_TimeStruct_t_, float }
%struct.Map_SuperStruct_t_ = type { i32, i32, [4 x i8], i32, [6 x ptr], ptr, [2 x i32], [6 x %struct.Map_TimeStruct_t_], [6 x %struct.Map_TimeStruct_t_], %struct.Map_TimeStruct_t_, float, ptr, ptr }
%struct.Map_SuperLibStruct_t_ = type { ptr, ptr, i32, i32, i32, i32, i32, ptr, ptr, ptr, [6 x [2 x i32]], [2 x i32], ptr, %struct.Map_TimeStruct_t_, float, float, ptr, ptr, ptr, ptr }

; Function Attrs: nounwind uwtable
define float @Map_MappingGetArea(ptr noundef %0) #0 {
  %2 = alloca ptr, align 8
  %3 = alloca ptr, align 8
  %4 = alloca float, align 4
  %5 = alloca i32, align 4
  store ptr %0, ptr %2, align 8, !tbaa !14
  call void @llvm.lifetime.start.p0(i64 8, ptr %3) #4
  call void @llvm.lifetime.start.p0(i64 4, ptr %4) #4
  store float 0.000000e+00, ptr %4, align 4, !tbaa !12
  call void @llvm.lifetime.start.p0(i64 4, ptr %5) #4
  %6 = load ptr, ptr %2, align 8, !tbaa !14
  %7 = getelementptr inbounds nuw %struct.Map_ManStruct_t_, ptr %6, i32 0, i32 29
  %8 = load i32, ptr %7, align 8, !tbaa !63
  %9 = icmp ne i32 %8, 0
  br i1 %9, label %10, label %16

10:                                               ; preds = %1
  %11 = load ptr, ptr %2, align 8, !tbaa !14
  %12 = getelementptr inbounds nuw %struct.Map_ManStruct_t_, ptr %11, i32 0, i32 30
  %13 = load ptr, ptr %12, align 8, !tbaa !54
  %14 = getelementptr inbounds nuw %struct.Map_SuperLibStruct_t_, ptr %13, i32 0, i32 1
  %15 = load ptr, ptr %14, align 8, !tbaa !65
  call void @Mio_LibraryCleanProfile2(ptr noundef %15)
  br label %16

16:                                               ; preds = %10, %1
  store i32 0, ptr %5, align 4, !tbaa !8
  br label %17

17:                                               ; preds = %178, %16
  %18 = load i32, ptr %5, align 4, !tbaa !8
  %19 = load ptr, ptr %2, align 8, !tbaa !14
  %20 = getelementptr inbounds nuw %struct.Map_ManStruct_t_, ptr %19, i32 0, i32 8
  %21 = load ptr, ptr %20, align 8, !tbaa !16
  %22 = getelementptr inbounds nuw %struct.Map_NodeVecStruct_t_, ptr %21, i32 0, i32 1
  %23 = load i32, ptr %22, align 8, !tbaa !29
  %24 = icmp slt i32 %18, %23
  br i1 %24, label %25, label %181

25:                                               ; preds = %17
  %26 = load ptr, ptr %2, align 8, !tbaa !14
  %27 = getelementptr inbounds nuw %struct.Map_ManStruct_t_, ptr %26, i32 0, i32 8
  %28 = load ptr, ptr %27, align 8, !tbaa !16
  %29 = getelementptr inbounds nuw %struct.Map_NodeVecStruct_t_, ptr %28, i32 0, i32 0
  %30 = load ptr, ptr %29, align 8, !tbaa !31
  %31 = load i32, ptr %5, align 4, !tbaa !8
  %32 = sext i32 %31 to i64
  %33 = getelementptr inbounds ptr, ptr %30, i64 %32
  %34 = load ptr, ptr %33, align 8, !tbaa !3
  store ptr %34, ptr %3, align 8, !tbaa !3
  %35 = load ptr, ptr %3, align 8, !tbaa !3
  %36 = getelementptr inbounds nuw %struct.Map_NodeStruct_t_, ptr %35, i32 0, i32 6
  %37 = getelementptr inbounds [3 x i32], ptr %36, i64 0, i64 2
  %38 = load i32, ptr %37, align 8, !tbaa !8
  %39 = icmp eq i32 %38, 0
  br i1 %39, label %40, label %41

40:                                               ; preds = %25
  br label %178

41:                                               ; preds = %25
  %42 = load ptr, ptr %3, align 8, !tbaa !3
  %43 = call i32 @Map_NodeIsBuf(ptr noundef %42)
  %44 = icmp ne i32 %43, 0
  br i1 %44, label %45, label %46

45:                                               ; preds = %41
  br label %178

46:                                               ; preds = %41
  %47 = load ptr, ptr %3, align 8, !tbaa !3
  %48 = call i32 @Map_NodeIsAnd(ptr noundef %47)
  %49 = icmp ne i32 %48, 0
  br i1 %49, label %50, label %145

50:                                               ; preds = %46
  %51 = load ptr, ptr %3, align 8, !tbaa !3
  %52 = getelementptr inbounds nuw %struct.Map_NodeStruct_t_, ptr %51, i32 0, i32 15
  %53 = getelementptr inbounds [2 x ptr], ptr %52, i64 0, i64 0
  %54 = load ptr, ptr %53, align 8, !tbaa !10
  %55 = icmp ne ptr %54, null
  br i1 %55, label %56, label %97

56:                                               ; preds = %50
  %57 = load ptr, ptr %3, align 8, !tbaa !3
  %58 = getelementptr inbounds nuw %struct.Map_NodeStruct_t_, ptr %57, i32 0, i32 6
  %59 = getelementptr inbounds [3 x i32], ptr %58, i64 0, i64 0
  %60 = load i32, ptr %59, align 8, !tbaa !8
  %61 = icmp sgt i32 %60, 0
  br i1 %61, label %68, label %62

62:                                               ; preds = %56
  %63 = load ptr, ptr %3, align 8, !tbaa !3
  %64 = getelementptr inbounds nuw %struct.Map_NodeStruct_t_, ptr %63, i32 0, i32 15
  %65 = getelementptr inbounds [2 x ptr], ptr %64, i64 0, i64 1
  %66 = load ptr, ptr %65, align 8, !tbaa !10
  %67 = icmp eq ptr %66, null
  br i1 %67, label %68, label %97

68:                                               ; preds = %62, %56
  %69 = load ptr, ptr %3, align 8, !tbaa !3
  %70 = getelementptr inbounds nuw %struct.Map_NodeStruct_t_, ptr %69, i32 0, i32 15
  %71 = getelementptr inbounds [2 x ptr], ptr %70, i64 0, i64 0
  %72 = load ptr, ptr %71, align 8, !tbaa !10
  %73 = getelementptr inbounds nuw %struct.Map_CutStruct_t_, ptr %72, i32 0, i32 9
  %74 = getelementptr inbounds [2 x %struct.Map_MatchStruct_t_], ptr %73, i64 0, i64 0
  %75 = getelementptr inbounds nuw %struct.Map_MatchStruct_t_, ptr %74, i32 0, i32 3
  %76 = load ptr, ptr %75, align 8, !tbaa !39
  %77 = getelementptr inbounds nuw %struct.Map_SuperStruct_t_, ptr %76, i32 0, i32 10
  %78 = load float, ptr %77, align 4, !tbaa !45
  %79 = load float, ptr %4, align 4, !tbaa !12
  %80 = fadd float %79, %78
  store float %80, ptr %4, align 4, !tbaa !12
  %81 = load ptr, ptr %2, align 8, !tbaa !14
  %82 = getelementptr inbounds nuw %struct.Map_ManStruct_t_, ptr %81, i32 0, i32 29
  %83 = load i32, ptr %82, align 8, !tbaa !63
  %84 = icmp ne i32 %83, 0
  br i1 %84, label %85, label %96

85:                                               ; preds = %68
  %86 = load ptr, ptr %3, align 8, !tbaa !3
  %87 = getelementptr inbounds nuw %struct.Map_NodeStruct_t_, ptr %86, i32 0, i32 15
  %88 = getelementptr inbounds [2 x ptr], ptr %87, i64 0, i64 0
  %89 = load ptr, ptr %88, align 8, !tbaa !10
  %90 = getelementptr inbounds nuw %struct.Map_CutStruct_t_, ptr %89, i32 0, i32 9
  %91 = getelementptr inbounds [2 x %struct.Map_MatchStruct_t_], ptr %90, i64 0, i64 0
  %92 = getelementptr inbounds nuw %struct.Map_MatchStruct_t_, ptr %91, i32 0, i32 3
  %93 = load ptr, ptr %92, align 8, !tbaa !39
  %94 = getelementptr inbounds nuw %struct.Map_SuperStruct_t_, ptr %93, i32 0, i32 5
  %95 = load ptr, ptr %94, align 8, !tbaa !52
  call void @Mio_GateIncProfile2(ptr noundef %95)
  br label %96

96:                                               ; preds = %85, %68
  br label %97

97:                                               ; preds = %96, %62, %50
  %98 = load ptr, ptr %3, align 8, !tbaa !3
  %99 = getelementptr inbounds nuw %struct.Map_NodeStruct_t_, ptr %98, i32 0, i32 15
  %100 = getelementptr inbounds [2 x ptr], ptr %99, i64 0, i64 1
  %101 = load ptr, ptr %100, align 8, !tbaa !10
  %102 = icmp ne ptr %101, null
  br i1 %102, label %103, label %144

103:                                              ; preds = %97
  %104 = load ptr, ptr %3, align 8, !tbaa !3
  %105 = getelementptr inbounds nuw %struct.Map_NodeStruct_t_, ptr %104, i32 0, i32 6
  %106 = getelementptr inbounds [3 x i32], ptr %105, i64 0, i64 1
  %107 = load i32, ptr %106, align 4, !tbaa !8
  %108 = icmp sgt i32 %107, 0
  br i1 %108, label %115, label %109

109:                                              ; preds = %103
  %110 = load ptr, ptr %3, align 8, !tbaa !3
  %111 = getelementptr inbounds nuw %struct.Map_NodeStruct_t_, ptr %110, i32 0, i32 15
  %112 = getelementptr inbounds [2 x ptr], ptr %111, i64 0, i64 0
  %113 = load ptr, ptr %112, align 8, !tbaa !10
  %114 = icmp eq ptr %113, null
  br i1 %114, label %115, label %144

115:                                              ; preds = %109, %103
  %116 = load ptr, ptr %3, align 8, !tbaa !3
  %117 = getelementptr inbounds nuw %struct.Map_NodeStruct_t_, ptr %116, i32 0, i32 15
  %118 = getelementptr inbounds [2 x ptr], ptr %117, i64 0, i64 1
  %119 = load ptr, ptr %118, align 8, !tbaa !10
  %120 = getelementptr inbounds nuw %struct.Map_CutStruct_t_, ptr %119, i32 0, i32 9
  %121 = getelementptr inbounds [2 x %struct.Map_MatchStruct_t_], ptr %120, i64 0, i64 1
  %122 = getelementptr inbounds nuw %struct.Map_MatchStruct_t_, ptr %121, i32 0, i32 3
  %123 = load ptr, ptr %122, align 8, !tbaa !39
  %124 = getelementptr inbounds nuw %struct.Map_SuperStruct_t_, ptr %123, i32 0, i32 10
  %125 = load float, ptr %124, align 4, !tbaa !45
  %126 = load float, ptr %4, align 4, !tbaa !12
  %127 = fadd float %126, %125
  store float %127, ptr %4, align 4, !tbaa !12
  %128 = load ptr, ptr %2, align 8, !tbaa !14
  %129 = getelementptr inbounds nuw %struct.Map_ManStruct_t_, ptr %128, i32 0, i32 29
  %130 = load i32, ptr %129, align 8, !tbaa !63
  %131 = icmp ne i32 %130, 0
  br i1 %131, label %132, label %143

132:                                              ; preds = %115
  %133 = load ptr, ptr %3, align 8, !tbaa !3
  %134 = getelementptr inbounds nuw %struct.Map_NodeStruct_t_, ptr %133, i32 0, i32 15
  %135 = getelementptr inbounds [2 x ptr], ptr %134, i64 0, i64 1
  %136 = load ptr, ptr %135, align 8, !tbaa !10
  %137 = getelementptr inbounds nuw %struct.Map_CutStruct_t_, ptr %136, i32 0, i32 9
  %138 = getelementptr inbounds [2 x %struct.Map_MatchStruct_t_], ptr %137, i64 0, i64 1
  %139 = getelementptr inbounds nuw %struct.Map_MatchStruct_t_, ptr %138, i32 0, i32 3
  %140 = load ptr, ptr %139, align 8, !tbaa !39
  %141 = getelementptr inbounds nuw %struct.Map_SuperStruct_t_, ptr %140, i32 0, i32 5
  %142 = load ptr, ptr %141, align 8, !tbaa !52
  call void @Mio_GateIncProfile2(ptr noundef %142)
  br label %143

143:                                              ; preds = %132, %115
  br label %144

144:                                              ; preds = %143, %109, %97
  br label %145

145:                                              ; preds = %144, %46
  %146 = load ptr, ptr %3, align 8, !tbaa !3
  %147 = getelementptr inbounds nuw %struct.Map_NodeStruct_t_, ptr %146, i32 0, i32 15
  %148 = getelementptr inbounds [2 x ptr], ptr %147, i64 0, i64 0
  %149 = load ptr, ptr %148, align 8, !tbaa !10
  %150 = icmp eq ptr %149, null
  br i1 %150, label %151, label %157

151:                                              ; preds = %145
  %152 = load ptr, ptr %3, align 8, !tbaa !3
  %153 = getelementptr inbounds nuw %struct.Map_NodeStruct_t_, ptr %152, i32 0, i32 6
  %154 = getelementptr inbounds [3 x i32], ptr %153, i64 0, i64 0
  %155 = load i32, ptr %154, align 8, !tbaa !8
  %156 = icmp sgt i32 %155, 0
  br i1 %156, label %169, label %157

157:                                              ; preds = %151, %145
  %158 = load ptr, ptr %3, align 8, !tbaa !3
  %159 = getelementptr inbounds nuw %struct.Map_NodeStruct_t_, ptr %158, i32 0, i32 15
  %160 = getelementptr inbounds [2 x ptr], ptr %159, i64 0, i64 1
  %161 = load ptr, ptr %160, align 8, !tbaa !10
  %162 = icmp eq ptr %161, null
  br i1 %162, label %163, label %177

163:                                              ; preds = %157
  %164 = load ptr, ptr %3, align 8, !tbaa !3
  %165 = getelementptr inbounds nuw %struct.Map_NodeStruct_t_, ptr %164, i32 0, i32 6
  %166 = getelementptr inbounds [3 x i32], ptr %165, i64 0, i64 1
  %167 = load i32, ptr %166, align 4, !tbaa !8
  %168 = icmp sgt i32 %167, 0
  br i1 %168, label %169, label %177

169:                                              ; preds = %163, %151
  %170 = load ptr, ptr %2, align 8, !tbaa !14
  %171 = getelementptr inbounds nuw %struct.Map_ManStruct_t_, ptr %170, i32 0, i32 30
  %172 = load ptr, ptr %171, align 8, !tbaa !54
  %173 = getelementptr inbounds nuw %struct.Map_SuperLibStruct_t_, ptr %172, i32 0, i32 14
  %174 = load float, ptr %173, align 4, !tbaa !55
  %175 = load float, ptr %4, align 4, !tbaa !12
  %176 = fadd float %175, %174
  store float %176, ptr %4, align 4, !tbaa !12
  br label %177

177:                                              ; preds = %169, %163, %157
  br label %178

178:                                              ; preds = %177, %45, %40
  %179 = load i32, ptr %5, align 4, !tbaa !8
  %180 = add nsw i32 %179, 1
  store i32 %180, ptr %5, align 4, !tbaa !8
  br label %17, !llvm.loop !70

181:                                              ; preds = %17
  store i32 0, ptr %5, align 4, !tbaa !8
  br label %182

182:                                              ; preds = %219, %181
  %183 = load i32, ptr %5, align 4, !tbaa !8
  %184 = load ptr, ptr %2, align 8, !tbaa !14
  %185 = getelementptr inbounds nuw %struct.Map_ManStruct_t_, ptr %184, i32 0, i32 5
  %186 = load i32, ptr %185, align 8, !tbaa !67
  %187 = icmp slt i32 %183, %186
  br i1 %187, label %188, label %222

188:                                              ; preds = %182
  %189 = load ptr, ptr %2, align 8, !tbaa !14
  %190 = getelementptr inbounds nuw %struct.Map_ManStruct_t_, ptr %189, i32 0, i32 4
  %191 = load ptr, ptr %190, align 8, !tbaa !68
  %192 = load i32, ptr %5, align 4, !tbaa !8
  %193 = sext i32 %192 to i64
  %194 = getelementptr inbounds ptr, ptr %191, i64 %193
  %195 = load ptr, ptr %194, align 8, !tbaa !3
  %196 = call i32 @Map_NodeIsVar(ptr noundef %195)
  %197 = icmp ne i32 %196, 0
  br i1 %197, label %198, label %218

198:                                              ; preds = %188
  %199 = load ptr, ptr %2, align 8, !tbaa !14
  %200 = getelementptr inbounds nuw %struct.Map_ManStruct_t_, ptr %199, i32 0, i32 4
  %201 = load ptr, ptr %200, align 8, !tbaa !68
  %202 = load i32, ptr %5, align 4, !tbaa !8
  %203 = sext i32 %202 to i64
  %204 = getelementptr inbounds ptr, ptr %201, i64 %203
  %205 = load ptr, ptr %204, align 8, !tbaa !3
  %206 = ptrtoint ptr %205 to i64
  %207 = and i64 %206, 1
  %208 = trunc i64 %207 to i32
  %209 = icmp ne i32 %208, 0
  br i1 %209, label %218, label %210

210:                                              ; preds = %198
  %211 = load ptr, ptr %2, align 8, !tbaa !14
  %212 = getelementptr inbounds nuw %struct.Map_ManStruct_t_, ptr %211, i32 0, i32 30
  %213 = load ptr, ptr %212, align 8, !tbaa !54
  %214 = getelementptr inbounds nuw %struct.Map_SuperLibStruct_t_, ptr %213, i32 0, i32 15
  %215 = load float, ptr %214, align 8, !tbaa !71
  %216 = load float, ptr %4, align 4, !tbaa !12
  %217 = fadd float %216, %215
  store float %217, ptr %4, align 4, !tbaa !12
  br label %218

218:                                              ; preds = %210, %198, %188
  br label %219

219:                                              ; preds = %218
  %220 = load i32, ptr %5, align 4, !tbaa !8
  %221 = add nsw i32 %220, 1
  store i32 %221, ptr %5, align 4, !tbaa !8
  br label %182, !llvm.loop !72

222:                                              ; preds = %182
  %223 = load float, ptr %4, align 4, !tbaa !12
  call void @llvm.lifetime.end.p0(i64 4, ptr %5) #4
  call void @llvm.lifetime.end.p0(i64 4, ptr %4) #4
  call void @llvm.lifetime.end.p0(i64 8, ptr %3) #4
  ret float %223
}