; Function Attrs: nounwind uwtable
define float @Map_MappingGetArea(ptr noundef readonly captures(none) %0) local_unnamed_addr #5 {
  %2 = getelementptr inbounds nuw i8, ptr %0, i64 168
  %3 = load i32, ptr %2, align 8, !tbaa !59
  %.not = icmp eq i32 %3, 0
  br i1 %.not, label %9, label %4

4:                                                ; preds = %1
  %5 = getelementptr inbounds nuw i8, ptr %0, i64 176
  %6 = load ptr, ptr %5, align 8, !tbaa !50
  %7 = getelementptr inbounds nuw i8, ptr %6, i64 8
  %8 = load ptr, ptr %7, align 8, !tbaa !61
  tail call void @Mio_LibraryCleanProfile2(ptr noundef %8) #7
  br label %9

9:                                                ; preds = %4, %1
  %10 = getelementptr inbounds nuw i8, ptr %0, i64 56
  %11 = load ptr, ptr %10, align 8, !tbaa !12
  %12 = getelementptr inbounds nuw i8, ptr %11, i64 8
  %13 = load i32, ptr %12, align 8, !tbaa !26
  %14 = icmp sgt i32 %13, 0
  br i1 %14, label %.lr.ph, label %.preheader

.lr.ph:                                           ; preds = %9
  %15 = getelementptr inbounds nuw i8, ptr %0, i64 176
  br label %21

.preheader:                                       ; preds = %94, %9
  %.039.lcssa = phi float [ 0.000000e+00, %9 ], [ %.140, %94 ]
  %16 = getelementptr inbounds nuw i8, ptr %0, i64 40
  %17 = load i32, ptr %16, align 8, !tbaa !62
  %18 = icmp sgt i32 %17, 0
  br i1 %18, label %.lr.ph53, label %._crit_edge

.lr.ph53:                                         ; preds = %.preheader
  %19 = getelementptr inbounds nuw i8, ptr %0, i64 32
  %20 = getelementptr inbounds nuw i8, ptr %0, i64 176
  br label %100

21:                                               ; preds = %.lr.ph, %94
  %indvars.iv = phi i64 [ 0, %.lr.ph ], [ %indvars.iv.next, %94 ]
  %22 = phi ptr [ %11, %.lr.ph ], [ %95, %94 ]
  %.03949 = phi float [ 0.000000e+00, %.lr.ph ], [ %.140, %94 ]
  %23 = load ptr, ptr %22, align 8, !tbaa !28
  %24 = getelementptr inbounds nuw ptr, ptr %23, i64 %indvars.iv
  %25 = load ptr, ptr %24, align 8, !tbaa !29
  %26 = getelementptr inbounds nuw i8, ptr %25, i64 32
  %27 = getelementptr inbounds nuw i8, ptr %25, i64 40
  %28 = load i32, ptr %27, align 8, !tbaa !8
  %29 = icmp eq i32 %28, 0
  br i1 %29, label %94, label %30

30:                                               ; preds = %21
  %31 = tail call i32 @Map_NodeIsBuf(ptr noundef nonnull %25) #7
  %.not43 = icmp eq i32 %31, 0
  br i1 %.not43, label %32, label %94

32:                                               ; preds = %30
  %33 = tail call i32 @Map_NodeIsAnd(ptr noundef nonnull %25) #7
  %.not44 = icmp eq i32 %33, 0
  br i1 %.not44, label %74, label %34

34:                                               ; preds = %32
  %35 = getelementptr inbounds nuw i8, ptr %25, i64 144
  %36 = load ptr, ptr %35, align 8, !tbaa !3
  %.not45 = icmp eq ptr %36, null
  br i1 %.not45, label %54, label %37

37:                                               ; preds = %34
  %38 = load i32, ptr %26, align 8, !tbaa !8
  %39 = icmp sgt i32 %38, 0
  br i1 %39, label %44, label %40

40:                                               ; preds = %37
  %41 = getelementptr inbounds nuw i8, ptr %25, i64 152
  %42 = load ptr, ptr %41, align 8, !tbaa !3
  %43 = icmp eq ptr %42, null
  br i1 %43, label %44, label %54

44:                                               ; preds = %40, %37
  %45 = getelementptr inbounds nuw i8, ptr %36, i64 96
  %46 = load ptr, ptr %45, align 8, !tbaa !36
  %47 = getelementptr inbounds nuw i8, ptr %46, i64 236
  %48 = load float, ptr %47, align 4, !tbaa !41
  %49 = fadd float %.03949, %48
  %50 = load i32, ptr %2, align 8, !tbaa !59
  %.not46 = icmp eq i32 %50, 0
  br i1 %.not46, label %54, label %51

51:                                               ; preds = %44
  %52 = getelementptr inbounds nuw i8, ptr %46, i64 64
  %53 = load ptr, ptr %52, align 8, !tbaa !48
  tail call void @Mio_GateIncProfile2(ptr noundef %53) #7
  br label %54

54:                                               ; preds = %44, %51, %40, %34
  %.3 = phi float [ %49, %51 ], [ %49, %44 ], [ %.03949, %40 ], [ %.03949, %34 ]
  %55 = getelementptr inbounds nuw i8, ptr %25, i64 152
  %56 = load ptr, ptr %55, align 8, !tbaa !3
  %.not47 = icmp eq ptr %56, null
  br i1 %.not47, label %74, label %57

57:                                               ; preds = %54
  %58 = getelementptr inbounds nuw i8, ptr %25, i64 36
  %59 = load i32, ptr %58, align 4, !tbaa !8
  %60 = icmp sgt i32 %59, 0
  br i1 %60, label %64, label %61

61:                                               ; preds = %57
  %62 = load ptr, ptr %35, align 8, !tbaa !3
  %63 = icmp eq ptr %62, null
  br i1 %63, label %64, label %74

64:                                               ; preds = %61, %57
  %65 = getelementptr inbounds nuw i8, ptr %56, i64 136
  %66 = load ptr, ptr %65, align 8, !tbaa !36
  %67 = getelementptr inbounds nuw i8, ptr %66, i64 236
  %68 = load float, ptr %67, align 4, !tbaa !41
  %69 = fadd float %.3, %68
  %70 = load i32, ptr %2, align 8, !tbaa !59
  %.not48 = icmp eq i32 %70, 0
  br i1 %.not48, label %74, label %71

71:                                               ; preds = %64
  %72 = getelementptr inbounds nuw i8, ptr %66, i64 64
  %73 = load ptr, ptr %72, align 8, !tbaa !48
  tail call void @Mio_GateIncProfile2(ptr noundef %73) #7
  br label %74

74:                                               ; preds = %54, %61, %71, %64, %32
  %.2 = phi float [ %69, %71 ], [ %69, %64 ], [ %.3, %61 ], [ %.3, %54 ], [ %.03949, %32 ]
  %75 = getelementptr inbounds nuw i8, ptr %25, i64 144
  %76 = load ptr, ptr %75, align 8, !tbaa !3
  %77 = icmp eq ptr %76, null
  br i1 %77, label %78, label %81

78:                                               ; preds = %74
  %79 = load i32, ptr %26, align 8, !tbaa !8
  %80 = icmp sgt i32 %79, 0
  br i1 %80, label %89, label %81

81:                                               ; preds = %78, %74
  %82 = getelementptr inbounds nuw i8, ptr %25, i64 152
  %83 = load ptr, ptr %82, align 8, !tbaa !3
  %84 = icmp eq ptr %83, null
  br i1 %84, label %85, label %94

85:                                               ; preds = %81
  %86 = getelementptr inbounds nuw i8, ptr %25, i64 36
  %87 = load i32, ptr %86, align 4, !tbaa !8
  %88 = icmp sgt i32 %87, 0
  br i1 %88, label %89, label %94

89:                                               ; preds = %85, %78
  %90 = load ptr, ptr %15, align 8, !tbaa !50
  %91 = getelementptr inbounds nuw i8, ptr %90, i64 140
  %92 = load float, ptr %91, align 4, !tbaa !51
  %93 = fadd float %.2, %92
  br label %94

94:                                               ; preds = %81, %85, %89, %30, %21
  %.140 = phi float [ %.03949, %21 ], [ %.03949, %30 ], [ %93, %89 ], [ %.2, %85 ], [ %.2, %81 ]
  %indvars.iv.next = add nuw nsw i64 %indvars.iv, 1
  %95 = load ptr, ptr %10, align 8, !tbaa !12
  %96 = getelementptr inbounds nuw i8, ptr %95, i64 8
  %97 = load i32, ptr %96, align 8, !tbaa !26
  %98 = sext i32 %97 to i64
  %99 = icmp slt i64 %indvars.iv.next, %98
  br i1 %99, label %21, label %.preheader, !llvm.loop !66

100:                                              ; preds = %.lr.ph53, %116
  %indvars.iv56 = phi i64 [ 0, %.lr.ph53 ], [ %indvars.iv.next57, %116 ]
  %.451 = phi float [ %.039.lcssa, %.lr.ph53 ], [ %.5, %116 ]
  %101 = load ptr, ptr %19, align 8, !tbaa !64
  %102 = getelementptr inbounds nuw ptr, ptr %101, i64 %indvars.iv56
  %103 = load ptr, ptr %102, align 8, !tbaa !29
  %104 = tail call i32 @Map_NodeIsVar(ptr noundef %103) #7
  %.not41 = icmp eq i32 %104, 0
  br i1 %.not41, label %116, label %105

105:                                              ; preds = %100
  %106 = load ptr, ptr %19, align 8, !tbaa !64
  %107 = getelementptr inbounds nuw ptr, ptr %106, i64 %indvars.iv56
  %108 = load ptr, ptr %107, align 8, !tbaa !29
  %109 = ptrtoint ptr %108 to i64
  %110 = and i64 %109, 1
  %.not42 = icmp eq i64 %110, 0
  br i1 %.not42, label %111, label %116

111:                                              ; preds = %105
  %112 = load ptr, ptr %20, align 8, !tbaa !50
  %113 = getelementptr inbounds nuw i8, ptr %112, i64 144
  %114 = load float, ptr %113, align 8, !tbaa !67
  %115 = fadd float %.451, %114
  br label %116

116:                                              ; preds = %100, %105, %111
  %.5 = phi float [ %.451, %105 ], [ %115, %111 ], [ %.451, %100 ]
  %indvars.iv.next57 = add nuw nsw i64 %indvars.iv56, 1
  %117 = load i32, ptr %16, align 8, !tbaa !62
  %118 = sext i32 %117 to i64
  %119 = icmp slt i64 %indvars.iv.next57, %118
  br i1 %119, label %100, label %._crit_edge, !llvm.loop !68

._crit_edge:                                      ; preds = %116, %.preheader
  %.4.lcssa = phi float [ %.039.lcssa, %.preheader ], [ %.5, %116 ]
  ret float %.4.lcssa
}